; Function Attrs: mustprogress nounwind uwtable
define internal void @_ZN4llvm3vfs6detail12_GLOBAL__N_119InMemoryFileAdaptor6statusEv(ptr dead_on_unwind noalias writable sret(%"class.llvm::ErrorOr.12") align 8 %0, ptr noundef nonnull align 8 dereferenceable(48) %1) unnamed_addr #0 align 2 {
  %3 = alloca %"class.llvm::vfs::Status", align 8
  %4 = alloca %"class.llvm::Twine", align 8
  %5 = getelementptr inbounds nuw i8, ptr %1, i64 8
  %6 = load ptr, ptr %5, align 8
  %7 = getelementptr inbounds nuw i8, ptr %1, i64 16
  %8 = getelementptr inbounds nuw i8, ptr %4, i64 32
  store i8 4, ptr %8, align 8
  %9 = getelementptr inbounds nuw i8, ptr %4, i64 33
  store i8 1, ptr %9, align 1
  store ptr %7, ptr %4, align 8
  %10 = load ptr, ptr %6, align 8
  %11 = getelementptr inbounds i8, ptr %10, i64 16
  %12 = load ptr, ptr %11, align 8
  call void %12(ptr dead_on_unwind nonnull writable sret(%"class.llvm::vfs::Status") align 8 %3, ptr noundef nonnull align 8 dereferenceable(144) %6, ptr noundef nonnull align 8 dereferenceable(34) %4) #27
  %13 = getelementptr inbounds nuw i8, ptr %0, i64 88
  %14 = load i8, ptr %13, align 8
  %15 = and i8 %14, -2
  store i8 %15, ptr %13, align 8
  call void @_ZNSt7__cxx1112basic_stringIcSt11char_traitsIcESaIcEEC1EOS4_(ptr noundef nonnull align 8 dereferenceable(32) %0, ptr noundef nonnull align 8 dereferenceable(32) %3) #27
  %16 = getelementptr inbounds nuw i8, ptr %0, i64 32
  %17 = getelementptr inbounds nuw i8, ptr %3, i64 32
  call void @llvm.memcpy.p0.p0.i64(ptr noundef nonnull align 8 dereferenceable(49) %16, ptr noundef nonnull align 8 dereferenceable(49) %17, i64 49, i1 false)
  call void @_ZNSt7__cxx1112basic_stringIcSt11char_traitsIcESaIcEED1Ev(ptr noundef nonnull align 8 dereferenceable(32) %3) #27
  ret void
}